; Function Attrs: mustprogress uwtable
define void @_ZN10MainWindow12selectedRowsEb(ptr dead_on_unwind noalias writable sret(%class.QList.13) align 8 %0, ptr nocapture noundef nonnull readonly align 8 dereferenceable(272) %1, i1 noundef zeroext %2) local_unnamed_addr #2 align 2 {
  %4 = getelementptr inbounds i8, ptr %1, i64 224
  %5 = load ptr, ptr %4, align 8
  %.not = icmp eq ptr %5, null
  br i1 %.not, label %7, label %6

6:                                                ; preds = %3
  tail call void @_ZN10PacketList12selectedRowsEb(ptr dead_on_unwind writable sret(%class.QList.13) align 8 %0, ptr noundef nonnull align 8 dereferenceable(464) %5, i1 noundef zeroext %2)
  br label %8

7:                                                ; preds = %3
  tail call void @llvm.memset.p0.i64(ptr noundef nonnull align 8 dereferenceable(24) %0, i8 0, i64 24, i1 false)
  br label %8

8:                                                ; preds = %7, %6
  ret void
}